(dp0
S'bins'
p1
(lp2
(dp3
S'cut'
p4
S'tag_Ele_pt > 35 && abs(tag_sc_eta) < 2.17 && el_q*tag_Ele_q < 0 && el_sc_eta >= -0.800000 && el_sc_eta < 0.800000 && el_pt >= 30.000000 && el_pt < 40.000000'
p5
sS'name'
p6
S'bin00_el_sc_eta_m0p80To0p80_el_pt_30p00To40p00'
p7
sS'vars'
p8
(dp9
S'el_sc_eta'
p10
(dp11
S'max'
p12
F0.8
sS'min'
p13
F-0.8
ssS'el_pt'
p14
(dp15
g12
I40
sg13
I30
sssS'title'
p16
S'; -0.800 < el_sc_eta < 0.800; 30.000 < el_pt < 40.000'
p17
sasg8
(lp18
g10
ag14
as.